target datalayout = "e-m:e-p270:32:32-p271:32:32-p272:64:64-i64:64-i128:128-f80:128-n8:16:32:64-S128"
target triple = "x86_64-pc-linux-gnu"

%class.btPersistentManifold = type { %struct.btTypedObject, [4 x i8], [4 x %class.btManifoldPoint], ptr, ptr, i32, float, float, i32, i32, i32 }
%struct.btTypedObject = type { i32 }
%class.btManifoldPoint = type <{ %class.btVector3, %class.btVector3, %class.btVector3, %class.btVector3, %class.btVector3, float, float, float, float, float, i32, i32, i32, i32, [4 x i8], ptr, i32, float, float, float, float, float, float, %union.anon.0, %union.anon.1, float, i32, %class.btVector3, %class.btVector3, [4 x i8] }>
%union.anon.0 = type { float }
%union.anon.1 = type { float }
%class.btVector3 = type { [4 x float] }

; Function Attrs: inlinehint mustprogress nounwind uwtable
define linkonce_odr dso_local void @_ZN9btVector3C2ERKfS1_S1_(ptr noundef nonnull align 4 dereferenceable(16) %0, ptr noundef nonnull align 4 dereferenceable(4) %1, ptr noundef nonnull align 4 dereferenceable(4) %2, ptr noundef nonnull align 4 dereferenceable(4) %3) unnamed_addr #7 comdat align 2 {
  %5 = alloca ptr, align 8
  %6 = alloca ptr, align 8
  %7 = alloca ptr, align 8
  %8 = alloca ptr, align 8
  store ptr %0, ptr %5, align 8, !tbaa !50
  store ptr %1, ptr %6, align 8, !tbaa !55
  store ptr %2, ptr %7, align 8, !tbaa !55
  store ptr %3, ptr %8, align 8, !tbaa !55
  %9 = load ptr, ptr %5, align 8
  %10 = load ptr, ptr %6, align 8, !tbaa !55
  %11 = load float, ptr %10, align 4, !tbaa !42
  %12 = getelementptr inbounds nuw %class.btVector3, ptr %9, i32 0, i32 0
  %13 = getelementptr inbounds [4 x float], ptr %12, i64 0, i64 0
  store float %11, ptr %13, align 4, !tbaa !42
  %14 = load ptr, ptr %7, align 8, !tbaa !55
  %15 = load float, ptr %14, align 4, !tbaa !42
  %16 = getelementptr inbounds nuw %class.btVector3, ptr %9, i32 0, i32 0
  %17 = getelementptr inbounds [4 x float], ptr %16, i64 0, i64 1
  store float %15, ptr %17, align 4, !tbaa !42
  %18 = load ptr, ptr %8, align 8, !tbaa !55
  %19 = load float, ptr %18, align 4, !tbaa !42
  %20 = getelementptr inbounds nuw %class.btVector3, ptr %9, i32 0, i32 0
  %21 = getelementptr inbounds [4 x float], ptr %20, i64 0, i64 2
  store float %19, ptr %21, align 4, !tbaa !42
  %22 = getelementptr inbounds nuw %class.btVector3, ptr %9, i32 0, i32 0
  %23 = getelementptr inbounds [4 x float], ptr %22, i64 0, i64 3
  store float 0.000000e+00, ptr %23, align 4, !tbaa !42
  ret void
}

; Function Attrs: inlinehint mustprogress nounwind uwtable
define linkonce_odr dso_local noundef float @_ZNK9btVector33dotERKS_(ptr noundef nonnull align 4 dereferenceable(16) %0, ptr noundef nonnull align 4 dereferenceable(16) %1) #7 comdat align 2 {
  %3 = alloca ptr, align 8
  %4 = alloca ptr, align 8
  store ptr %0, ptr %3, align 8, !tbaa !50
  store ptr %1, ptr %4, align 8, !tbaa !50
  %5 = load ptr, ptr %3, align 8
  %6 = getelementptr inbounds nuw %class.btVector3, ptr %5, i32 0, i32 0
  %7 = getelementptr inbounds [4 x float], ptr %6, i64 0, i64 0
  %8 = load float, ptr %7, align 4, !tbaa !42
  %9 = load ptr, ptr %4, align 8, !tbaa !50
  %10 = getelementptr inbounds nuw %class.btVector3, ptr %9, i32 0, i32 0
  %11 = getelementptr inbounds [4 x float], ptr %10, i64 0, i64 0
  %12 = load float, ptr %11, align 4, !tbaa !42
  %13 = getelementptr inbounds nuw %class.btVector3, ptr %5, i32 0, i32 0
  %14 = getelementptr inbounds [4 x float], ptr %13, i64 0, i64 1
  %15 = load float, ptr %14, align 4, !tbaa !42
  %16 = load ptr, ptr %4, align 8, !tbaa !50
  %17 = getelementptr inbounds nuw %class.btVector3, ptr %16, i32 0, i32 0
  %18 = getelementptr inbounds [4 x float], ptr %17, i64 0, i64 1
  %19 = load float, ptr %18, align 4, !tbaa !42
  %20 = fmul float %15, %19
  %21 = call float @llvm.fmuladd.f32(float %8, float %12, float %20)
  %22 = getelementptr inbounds nuw %class.btVector3, ptr %5, i32 0, i32 0
  %23 = getelementptr inbounds [4 x float], ptr %22, i64 0, i64 2
  %24 = load float, ptr %23, align 4, !tbaa !42
  %25 = load ptr, ptr %4, align 8, !tbaa !50
  %26 = getelementptr inbounds nuw %class.btVector3, ptr %25, i32 0, i32 0
  %27 = getelementptr inbounds [4 x float], ptr %26, i64 0, i64 2
  %28 = load float, ptr %27, align 4, !tbaa !42
  %29 = call float @llvm.fmuladd.f32(float %24, float %28, float %21)
  ret float %29
}

; Function Attrs: inlinehint mustprogress uwtable
define linkonce_odr dso_local { <2 x float>, <2 x float> } @_ZmiRK9btVector3S1_(ptr noundef nonnull align 4 dereferenceable(16) %0, ptr noundef nonnull align 4 dereferenceable(16) %1) #5 comdat {
  %3 = alloca %class.btVector3, align 4
  %4 = alloca ptr, align 8
  %5 = alloca ptr, align 8
  %6 = alloca float, align 4
  %7 = alloca float, align 4
  %8 = alloca float, align 4
  store ptr %0, ptr %4, align 8, !tbaa !50
  store ptr %1, ptr %5, align 8, !tbaa !50
  call void @llvm.lifetime.start.p0(i64 4, ptr %6) #11
  %9 = load ptr, ptr %4, align 8, !tbaa !50
  %10 = getelementptr inbounds nuw %class.btVector3, ptr %9, i32 0, i32 0
  %11 = getelementptr inbounds [4 x float], ptr %10, i64 0, i64 0
  %12 = load float, ptr %11, align 4, !tbaa !42
  %13 = load ptr, ptr %5, align 8, !tbaa !50
  %14 = getelementptr inbounds nuw %class.btVector3, ptr %13, i32 0, i32 0
  %15 = getelementptr inbounds [4 x float], ptr %14, i64 0, i64 0
  %16 = load float, ptr %15, align 4, !tbaa !42
  %17 = fsub float %12, %16
  store float %17, ptr %6, align 4, !tbaa !42
  call void @llvm.lifetime.start.p0(i64 4, ptr %7) #11
  %18 = load ptr, ptr %4, align 8, !tbaa !50
  %19 = getelementptr inbounds nuw %class.btVector3, ptr %18, i32 0, i32 0
  %20 = getelementptr inbounds [4 x float], ptr %19, i64 0, i64 1
  %21 = load float, ptr %20, align 4, !tbaa !42
  %22 = load ptr, ptr %5, align 8, !tbaa !50
  %23 = getelementptr inbounds nuw %class.btVector3, ptr %22, i32 0, i32 0
  %24 = getelementptr inbounds [4 x float], ptr %23, i64 0, i64 1
  %25 = load float, ptr %24, align 4, !tbaa !42
  %26 = fsub float %21, %25
  store float %26, ptr %7, align 4, !tbaa !42
  call void @llvm.lifetime.start.p0(i64 4, ptr %8) #11
  %27 = load ptr, ptr %4, align 8, !tbaa !50
  %28 = getelementptr inbounds nuw %class.btVector3, ptr %27, i32 0, i32 0
  %29 = getelementptr inbounds [4 x float], ptr %28, i64 0, i64 2
  %30 = load float, ptr %29, align 4, !tbaa !42
  %31 = load ptr, ptr %5, align 8, !tbaa !50
  %32 = getelementptr inbounds nuw %class.btVector3, ptr %31, i32 0, i32 0
  %33 = getelementptr inbounds [4 x float], ptr %32, i64 0, i64 2
  %34 = load float, ptr %33, align 4, !tbaa !42
  %35 = fsub float %30, %34
  store float %35, ptr %8, align 4, !tbaa !42
  call void @_ZN9btVector3C2ERKfS1_S1_(ptr noundef nonnull align 4 dereferenceable(16) %3, ptr noundef nonnull align 4 dereferenceable(4) %6, ptr noundef nonnull align 4 dereferenceable(4) %7, ptr noundef nonnull align 4 dereferenceable(4) %8)
  call void @llvm.lifetime.end.p0(i64 4, ptr %8) #11
  call void @llvm.lifetime.end.p0(i64 4, ptr %7) #11
  call void @llvm.lifetime.end.p0(i64 4, ptr %6) #11
  %36 = getelementptr inbounds nuw %class.btVector3, ptr %3, i32 0, i32 0
  %37 = load { <2 x float>, <2 x float> }, ptr %36, align 4
  ret { <2 x float>, <2 x float> } %37
}

; Function Attrs: inlinehint mustprogress nounwind uwtable
define linkonce_odr dso_local noundef i32 @_ZNK20btPersistentManifold14getNumContactsEv(ptr noundef nonnull align 8 dereferenceable(880) %0) #7 comdat align 2 {
  %2 = alloca ptr, align 8
  store ptr %0, ptr %2, align 8, !tbaa !12
  %3 = load ptr, ptr %2, align 8
  %4 = getelementptr inbounds nuw %class.btPersistentManifold, ptr %3, i32 0, i32 5
  %5 = load i32, ptr %4, align 8, !tbaa !20
  ret i32 %5
}

; Function Attrs: mustprogress nounwind uwtable
define dso_local noundef float @_ZNK20btPersistentManifold27getContactBreakingThresholdEv(ptr noundef nonnull align 8 dereferenceable(880) %0) #1 align 2 {
  %2 = alloca ptr, align 8
  store ptr %0, ptr %2, align 8, !tbaa !12
  %3 = load ptr, ptr %2, align 8
  %4 = getelementptr inbounds nuw %class.btPersistentManifold, ptr %3, i32 0, i32 6
  %5 = load float, ptr %4, align 4, !tbaa !58
  ret float %5
}

; Function Attrs: mustprogress uwtable
define dso_local noundef i32 @_ZNK20btPersistentManifold13getCacheEntryERK15btManifoldPoint(ptr noundef nonnull align 8 dereferenceable(880) %0, ptr noundef nonnull align 8 dereferenceable(204) %1) #4 align 2 {
  %3 = alloca ptr, align 8
  %4 = alloca ptr, align 8
  %5 = alloca float, align 4
  %6 = alloca i32, align 4
  %7 = alloca i32, align 4
  %8 = alloca i32, align 4
  %9 = alloca ptr, align 8
  %10 = alloca %class.btVector3, align 4
  %11 = alloca float, align 4
  store ptr %0, ptr %3, align 8, !tbaa !12
  store ptr %1, ptr %4, align 8, !tbaa !27
  %12 = load ptr, ptr %3, align 8
  call void @llvm.lifetime.start.p0(i64 4, ptr %5) #11
  %13 = call noundef float @_ZNK20btPersistentManifold27getContactBreakingThresholdEv(ptr noundef nonnull align 8 dereferenceable(880) %12)
  %14 = call noundef float @_ZNK20btPersistentManifold27getContactBreakingThresholdEv(ptr noundef nonnull align 8 dereferenceable(880) %12)
  %15 = fmul float %13, %14
  store float %15, ptr %5, align 4, !tbaa !42
  call void @llvm.lifetime.start.p0(i64 4, ptr %6) #11
  %16 = call noundef i32 @_ZNK20btPersistentManifold14getNumContactsEv(ptr noundef nonnull align 8 dereferenceable(880) %12)
  store i32 %16, ptr %6, align 4, !tbaa !9
  call void @llvm.lifetime.start.p0(i64 4, ptr %7) #11
  store i32 -1, ptr %7, align 4, !tbaa !9
  call void @llvm.lifetime.start.p0(i64 4, ptr %8) #11
  store i32 0, ptr %8, align 4, !tbaa !9
  br label %17

17:                                               ; preds = %45, %2
  %18 = load i32, ptr %8, align 4, !tbaa !9
  %19 = load i32, ptr %6, align 4, !tbaa !9
  %20 = icmp slt i32 %18, %19
  br i1 %20, label %22, label %21

21:                                               ; preds = %17
  call void @llvm.lifetime.end.p0(i64 4, ptr %8) #11
  br label %48

22:                                               ; preds = %17
  call void @llvm.lifetime.start.p0(i64 8, ptr %9) #11
  %23 = getelementptr inbounds nuw %class.btPersistentManifold, ptr %12, i32 0, i32 2
  %24 = load i32, ptr %8, align 4, !tbaa !9
  %25 = sext i32 %24 to i64
  %26 = getelementptr inbounds [4 x %class.btManifoldPoint], ptr %23, i64 0, i64 %25
  store ptr %26, ptr %9, align 8, !tbaa !27
  call void @llvm.lifetime.start.p0(i64 16, ptr %10) #11
  %27 = load ptr, ptr %9, align 8, !tbaa !27
  %28 = getelementptr inbounds nuw %class.btManifoldPoint, ptr %27, i32 0, i32 0
  %29 = load ptr, ptr %4, align 8, !tbaa !27
  %30 = getelementptr inbounds nuw %class.btManifoldPoint, ptr %29, i32 0, i32 0
  %31 = call { <2 x float>, <2 x float> } @_ZmiRK9btVector3S1_(ptr noundef nonnull align 4 dereferenceable(16) %28, ptr noundef nonnull align 4 dereferenceable(16) %30)
  %32 = getelementptr inbounds nuw %class.btVector3, ptr %10, i32 0, i32 0
  %33 = getelementptr inbounds nuw { <2 x float>, <2 x float> }, ptr %32, i32 0, i32 0
  %34 = extractvalue { <2 x float>, <2 x float> } %31, 0
  store <2 x float> %34, ptr %33, align 4
  %35 = getelementptr inbounds nuw { <2 x float>, <2 x float> }, ptr %32, i32 0, i32 1
  %36 = extractvalue { <2 x float>, <2 x float> } %31, 1
  store <2 x float> %36, ptr %35, align 4
  call void @llvm.lifetime.start.p0(i64 4, ptr %11) #11
  %37 = call noundef float @_ZNK9btVector33dotERKS_(ptr noundef nonnull align 4 dereferenceable(16) %10, ptr noundef nonnull align 4 dereferenceable(16) %10)
  store float %37, ptr %11, align 4, !tbaa !42
  %38 = load float, ptr %11, align 4, !tbaa !42
  %39 = load float, ptr %5, align 4, !tbaa !42
  %40 = fcmp olt float %38, %39
  br i1 %40, label %41, label %44

41:                                               ; preds = %22
  %42 = load float, ptr %11, align 4, !tbaa !42
  store float %42, ptr %5, align 4, !tbaa !42
  %43 = load i32, ptr %8, align 4, !tbaa !9
  store i32 %43, ptr %7, align 4, !tbaa !9
  br label %44

44:                                               ; preds = %41, %22
  call void @llvm.lifetime.end.p0(i64 4, ptr %11) #11
  call void @llvm.lifetime.end.p0(i64 16, ptr %10) #11
  call void @llvm.lifetime.end.p0(i64 8, ptr %9) #11
  br label %45

45:                                               ; preds = %44
  %46 = load i32, ptr %8, align 4, !tbaa !9
  %47 = add nsw i32 %46, 1
  store i32 %47, ptr %8, align 4, !tbaa !9
  br label %17, !llvm.loop !57

48:                                               ; preds = %21
  %49 = load i32, ptr %7, align 4, !tbaa !9
  call void @llvm.lifetime.end.p0(i64 4, ptr %7) #11
  call void @llvm.lifetime.end.p0(i64 4, ptr %6) #11
  call void @llvm.lifetime.end.p0(i64 4, ptr %5) #11
  ret i32 %49
}