; Function Attrs: mustprogress nofree norecurse nosync nounwind willreturn memory(argmem: read) uwtable
define dso_local noundef i32 @_ZNK20btPersistentManifold13getCacheEntryERK15btManifoldPoint(ptr noundef nonnull readonly align 8 captures(none) dereferenceable(880) %0, ptr noundef nonnull readonly align 8 captures(none) dereferenceable(204) %1) local_unnamed_addr #4 align 2 {
  %3 = getelementptr inbounds nuw i8, ptr %0, i64 856
  %4 = load i32, ptr %3, align 8, !tbaa !27
  %5 = icmp sgt i32 %4, 0
  br i1 %5, label %.lr.ph, label %._crit_edge

.lr.ph:                                           ; preds = %2
  %6 = getelementptr inbounds nuw i8, ptr %0, i64 860
  %7 = load float, ptr %6, align 4, !tbaa !28
  %8 = fmul float %7, %7
  %9 = getelementptr inbounds nuw i8, ptr %0, i64 8
  %10 = load float, ptr %1, align 8, !tbaa !24
  %11 = getelementptr inbounds nuw i8, ptr %1, i64 4
  %12 = load float, ptr %11, align 4, !tbaa !24
  %13 = getelementptr inbounds nuw i8, ptr %1, i64 8
  %14 = load float, ptr %13, align 8, !tbaa !24
  %wide.trip.count = zext nneg i32 %4 to i64
  br label %15

._crit_edge:                                      ; preds = %15, %2
  %.011.lcssa = phi i32 [ -1, %2 ], [ %.112, %15 ]
  ret i32 %.011.lcssa

15:                                               ; preds = %.lr.ph, %15
  %indvars.iv = phi i64 [ 0, %.lr.ph ], [ %indvars.iv.next, %15 ]
  %.023 = phi float [ %8, %.lr.ph ], [ %.1, %15 ]
  %.01122 = phi i32 [ -1, %.lr.ph ], [ %.112, %15 ]
  %16 = getelementptr inbounds nuw [4 x %class.btManifoldPoint], ptr %9, i64 0, i64 %indvars.iv
  %17 = load float, ptr %16, align 8, !tbaa !24
  %18 = fsub float %17, %10
  %19 = getelementptr inbounds nuw i8, ptr %16, i64 4
  %20 = load float, ptr %19, align 4, !tbaa !24
  %21 = fsub float %20, %12
  %22 = getelementptr inbounds nuw i8, ptr %16, i64 8
  %23 = load float, ptr %22, align 8, !tbaa !24
  %24 = fsub float %23, %14
  %25 = fmul float %21, %21
  %26 = tail call float @llvm.fmuladd.f32(float %18, float %18, float %25)
  %27 = tail call noundef float @llvm.fmuladd.f32(float %24, float %24, float %26)
  %28 = fcmp olt float %27, %.023
  %29 = trunc nuw nsw i64 %indvars.iv to i32
  %.112 = select i1 %28, i32 %29, i32 %.01122
  %.1 = select i1 %28, float %27, float %.023
  %indvars.iv.next = add nuw nsw i64 %indvars.iv, 1
  %exitcond.not = icmp eq i64 %indvars.iv.next, %wide.trip.count
  br i1 %exitcond.not, label %._crit_edge, label %15, !llvm.loop !29
}